ARM GAS  /tmp/ccZQz6BU.s 			page 1


   1              		.cpu cortex-m0
   2              		.arch armv6s-m
   3              		.fpu softvfp
   4              		.eabi_attribute 20, 1
   5              		.eabi_attribute 21, 1
   6              		.eabi_attribute 23, 3
   7              		.eabi_attribute 24, 1
   8              		.eabi_attribute 25, 1
   9              		.eabi_attribute 26, 1
  10              		.eabi_attribute 30, 1
  11              		.eabi_attribute 34, 0
  12              		.eabi_attribute 18, 4
  13              		.file	"ws2811.c"
  14              		.text
  15              	.Ltext0:
  16              		.cfi_sections	.debug_frame
  17              		.file 1 "Core/Src/ws2811.c"
  18              		.section	.text.ws2811_tx,"ax",%progbits
  19              		.align	1
  20              		.global	ws2811_tx
  21              		.syntax unified
  22              		.code	16
  23              		.thumb_func
  25              	ws2811_tx:
  26              	.LVL0:
  27              	.LFB40:
   1:Core/Src/ws2811.c **** #include "ws2811.h"
   2:Core/Src/ws2811.c **** #include "main.h"
   3:Core/Src/ws2811.c **** #include "string.h"
   4:Core/Src/ws2811.c **** #include "stm32f0xx_hal_spi.h"
   5:Core/Src/ws2811.c **** 
   6:Core/Src/ws2811.c **** #define BITS (4)
   7:Core/Src/ws2811.c **** #define BYTES_PER_LED (3)
   8:Core/Src/ws2811.c **** #define BUFF_SIZE (NUMBER_LEDS*BYTES_PER_LED*WS2811_BUFF_LEN)
   9:Core/Src/ws2811.c **** extern SPI_HandleTypeDef hspi1;
  10:Core/Src/ws2811.c **** 
  11:Core/Src/ws2811.c **** static uint8_t ws2811_bkup_buffer[BUFF_SIZE];
  12:Core/Src/ws2811.c **** static uint8_t ws2811_buffer[BUFF_SIZE];
  13:Core/Src/ws2811.c **** 
  14:Core/Src/ws2811.c **** static volatile uint32_t spi_index = 0;
  15:Core/Src/ws2811.c **** 
  16:Core/Src/ws2811.c **** ws2811_ret_E ws2811_tx(led_code_S (*led_timeseries)[NUMBER_LEDS], uint32_t n) {
  28              		.loc 1 16 79 view -0
  29              		.cfi_startproc
  30              		@ args = 0, pretend = 0, frame = 0
  31              		@ frame_needed = 0, uses_anonymous_args = 0
  32              		.loc 1 16 79 is_stmt 0 view .LVU1
  33 0000 F0B5     		push	{r4, r5, r6, r7, lr}
  34              	.LCFI0:
  35              		.cfi_def_cfa_offset 20
  36              		.cfi_offset 4, -20
  37              		.cfi_offset 5, -16
  38              		.cfi_offset 6, -12
  39              		.cfi_offset 7, -8
  40              		.cfi_offset 14, -4
  41 0002 8C46     		mov	ip, r1
  17:Core/Src/ws2811.c **** 	for (uint32_t i = 0; i < n; i++) {
ARM GAS  /tmp/ccZQz6BU.s 			page 2


  42              		.loc 1 17 2 is_stmt 1 view .LVU2
  43              	.LBB2:
  44              		.loc 1 17 7 view .LVU3
  45              	.LVL1:
  46              		.loc 1 17 16 is_stmt 0 view .LVU4
  47 0004 0027     		movs	r7, #0
  48              	.LVL2:
  49              	.L2:
  50              		.loc 1 17 25 is_stmt 1 discriminator 1 view .LVU5
  51 0006 6745     		cmp	r7, ip
  52 0008 16D3     		bcc	.L5
  53              	.LBE2:
  18:Core/Src/ws2811.c **** 		for (uint32_t j = 0; j < NUMBER_LEDS; j++) {
  19:Core/Src/ws2811.c **** 			ws2811_bkup_buffer[i * NUMBER_LEDS*BYTES_PER_LED + j*BYTES_PER_LED + 0] = led_timeseries[i][j].r
  20:Core/Src/ws2811.c **** 			ws2811_bkup_buffer[i * NUMBER_LEDS*BYTES_PER_LED + j*BYTES_PER_LED + 1] = led_timeseries[i][j].g
  21:Core/Src/ws2811.c **** 			ws2811_bkup_buffer[i * NUMBER_LEDS*BYTES_PER_LED + j*BYTES_PER_LED + 2] = led_timeseries[i][j].b
  22:Core/Src/ws2811.c **** 		}
  23:Core/Src/ws2811.c **** 	}
  24:Core/Src/ws2811.c **** 	return WS2811_RET_OK;
  54              		.loc 1 24 2 view .LVU6
  25:Core/Src/ws2811.c **** }
  55              		.loc 1 25 1 is_stmt 0 view .LVU7
  56 000a 0020     		movs	r0, #0
  57              	.LVL3:
  58              		.loc 1 25 1 view .LVU8
  59              		@ sp needed
  60              	.LVL4:
  61              		.loc 1 25 1 view .LVU9
  62 000c F0BD     		pop	{r4, r5, r6, r7, pc}
  63              	.LVL5:
  64              	.L3:
  65              	.LBB5:
  66              	.LBB3:
  19:Core/Src/ws2811.c **** 			ws2811_bkup_buffer[i * NUMBER_LEDS*BYTES_PER_LED + j*BYTES_PER_LED + 1] = led_timeseries[i][j].g
  67              		.loc 1 19 4 is_stmt 1 view .LVU10
  19:Core/Src/ws2811.c **** 			ws2811_bkup_buffer[i * NUMBER_LEDS*BYTES_PER_LED + j*BYTES_PER_LED + 1] = led_timeseries[i][j].g
  68              		.loc 1 19 92 is_stmt 0 view .LVU11
  69 000e 6C23     		movs	r3, #108
  70 0010 7B43     		muls	r3, r7
  71 0012 C218     		adds	r2, r0, r3
  19:Core/Src/ws2811.c **** 			ws2811_bkup_buffer[i * NUMBER_LEDS*BYTES_PER_LED + j*BYTES_PER_LED + 1] = led_timeseries[i][j].g
  72              		.loc 1 19 56 view .LVU12
  73 0014 6C00     		lsls	r4, r5, #1
  74 0016 6419     		adds	r4, r4, r5
  19:Core/Src/ws2811.c **** 			ws2811_bkup_buffer[i * NUMBER_LEDS*BYTES_PER_LED + j*BYTES_PER_LED + 1] = led_timeseries[i][j].g
  75              		.loc 1 19 71 view .LVU13
  76 0018 1B19     		adds	r3, r3, r4
  19:Core/Src/ws2811.c **** 			ws2811_bkup_buffer[i * NUMBER_LEDS*BYTES_PER_LED + j*BYTES_PER_LED + 1] = led_timeseries[i][j].g
  77              		.loc 1 19 98 view .LVU14
  78 001a A15C     		ldrb	r1, [r4, r2]
  19:Core/Src/ws2811.c **** 			ws2811_bkup_buffer[i * NUMBER_LEDS*BYTES_PER_LED + j*BYTES_PER_LED + 1] = led_timeseries[i][j].g
  79              		.loc 1 19 76 view .LVU15
  80 001c 074E     		ldr	r6, .L6
  81 001e F154     		strb	r1, [r6, r3]
  20:Core/Src/ws2811.c **** 			ws2811_bkup_buffer[i * NUMBER_LEDS*BYTES_PER_LED + j*BYTES_PER_LED + 2] = led_timeseries[i][j].b
  82              		.loc 1 20 4 is_stmt 1 view .LVU16
  20:Core/Src/ws2811.c **** 			ws2811_bkup_buffer[i * NUMBER_LEDS*BYTES_PER_LED + j*BYTES_PER_LED + 2] = led_timeseries[i][j].b
ARM GAS  /tmp/ccZQz6BU.s 			page 3


  83              		.loc 1 20 71 is_stmt 0 view .LVU17
  84 0020 591C     		adds	r1, r3, #1
  20:Core/Src/ws2811.c **** 			ws2811_bkup_buffer[i * NUMBER_LEDS*BYTES_PER_LED + j*BYTES_PER_LED + 2] = led_timeseries[i][j].b
  85              		.loc 1 20 98 view .LVU18
  86 0022 1219     		adds	r2, r2, r4
  87 0024 5478     		ldrb	r4, [r2, #1]
  20:Core/Src/ws2811.c **** 			ws2811_bkup_buffer[i * NUMBER_LEDS*BYTES_PER_LED + j*BYTES_PER_LED + 2] = led_timeseries[i][j].b
  88              		.loc 1 20 76 view .LVU19
  89 0026 7454     		strb	r4, [r6, r1]
  21:Core/Src/ws2811.c **** 		}
  90              		.loc 1 21 4 is_stmt 1 view .LVU20
  21:Core/Src/ws2811.c **** 		}
  91              		.loc 1 21 71 is_stmt 0 view .LVU21
  92 0028 0233     		adds	r3, r3, #2
  21:Core/Src/ws2811.c **** 		}
  93              		.loc 1 21 98 view .LVU22
  94 002a 9278     		ldrb	r2, [r2, #2]
  21:Core/Src/ws2811.c **** 		}
  95              		.loc 1 21 76 view .LVU23
  96 002c F254     		strb	r2, [r6, r3]
  18:Core/Src/ws2811.c **** 			ws2811_bkup_buffer[i * NUMBER_LEDS*BYTES_PER_LED + j*BYTES_PER_LED + 0] = led_timeseries[i][j].r
  97              		.loc 1 18 42 is_stmt 1 discriminator 3 view .LVU24
  98 002e 0135     		adds	r5, r5, #1
  99              	.LVL6:
 100              	.L4:
  18:Core/Src/ws2811.c **** 			ws2811_bkup_buffer[i * NUMBER_LEDS*BYTES_PER_LED + j*BYTES_PER_LED + 0] = led_timeseries[i][j].r
 101              		.loc 1 18 26 discriminator 1 view .LVU25
 102 0030 232D     		cmp	r5, #35
 103 0032 ECD9     		bls	.L3
 104              	.LBE3:
  17:Core/Src/ws2811.c **** 		for (uint32_t j = 0; j < NUMBER_LEDS; j++) {
 105              		.loc 1 17 31 discriminator 2 view .LVU26
 106 0034 0137     		adds	r7, r7, #1
 107              	.LVL7:
  17:Core/Src/ws2811.c **** 		for (uint32_t j = 0; j < NUMBER_LEDS; j++) {
 108              		.loc 1 17 31 is_stmt 0 discriminator 2 view .LVU27
 109 0036 E6E7     		b	.L2
 110              	.LVL8:
 111              	.L5:
 112              	.LBB4:
  18:Core/Src/ws2811.c **** 			ws2811_bkup_buffer[i * NUMBER_LEDS*BYTES_PER_LED + j*BYTES_PER_LED + 0] = led_timeseries[i][j].r
 113              		.loc 1 18 17 view .LVU28
 114 0038 0025     		movs	r5, #0
 115 003a F9E7     		b	.L4
 116              	.L7:
 117              		.align	2
 118              	.L6:
 119 003c 00000000 		.word	ws2811_bkup_buffer
 120              	.LBE4:
 121              	.LBE5:
 122              		.cfi_endproc
 123              	.LFE40:
 125              		.section	.text.ws2811_trigger,"ax",%progbits
 126              		.align	1
 127              		.global	ws2811_trigger
 128              		.syntax unified
 129              		.code	16
ARM GAS  /tmp/ccZQz6BU.s 			page 4


 130              		.thumb_func
 132              	ws2811_trigger:
 133              	.LFB41:
  26:Core/Src/ws2811.c **** 
  27:Core/Src/ws2811.c **** static volatile uint8_t spi_d[BITS];
  28:Core/Src/ws2811.c **** static volatile uint8_t output_buff[BYTES_PER_LED*NUMBER_LEDS*BITS+3];
  29:Core/Src/ws2811.c **** ws2811_ret_E ws2811_trigger(void) {
 134              		.loc 1 29 35 is_stmt 1 view -0
 135              		.cfi_startproc
 136              		@ args = 0, pretend = 0, frame = 0
 137              		@ frame_needed = 0, uses_anonymous_args = 0
 138 0000 F8B5     		push	{r3, r4, r5, r6, r7, lr}
 139              	.LCFI1:
 140              		.cfi_def_cfa_offset 24
 141              		.cfi_offset 3, -24
 142              		.cfi_offset 4, -20
 143              		.cfi_offset 5, -16
 144              		.cfi_offset 6, -12
 145              		.cfi_offset 7, -8
 146              		.cfi_offset 14, -4
 147 0002 CE46     		mov	lr, r9
 148 0004 4746     		mov	r7, r8
 149 0006 80B5     		push	{r7, lr}
 150              	.LCFI2:
 151              		.cfi_def_cfa_offset 32
 152              		.cfi_offset 8, -32
 153              		.cfi_offset 9, -28
  30:Core/Src/ws2811.c **** 	for(uint32_t i = 0;i < sizeof(output_buff);i++) {
 154              		.loc 1 30 2 view .LVU30
 155              	.LBB6:
 156              		.loc 1 30 6 view .LVU31
 157              	.LVL9:
 158              		.loc 1 30 15 is_stmt 0 view .LVU32
 159 0008 0023     		movs	r3, #0
 160              		.loc 1 30 2 view .LVU33
 161 000a 03E0     		b	.L9
 162              	.LVL10:
 163              	.L10:
  31:Core/Src/ws2811.c **** 		output_buff[i] = 0;
 164              		.loc 1 31 3 is_stmt 1 view .LVU34
 165              		.loc 1 31 18 is_stmt 0 view .LVU35
 166 000c 2E4A     		ldr	r2, .L23
 167 000e 0021     		movs	r1, #0
 168 0010 D154     		strb	r1, [r2, r3]
  30:Core/Src/ws2811.c **** 	for(uint32_t i = 0;i < sizeof(output_buff);i++) {
 169              		.loc 1 30 46 is_stmt 1 discriminator 3 view .LVU36
 170 0012 0133     		adds	r3, r3, #1
 171              	.LVL11:
 172              	.L9:
  30:Core/Src/ws2811.c **** 	for(uint32_t i = 0;i < sizeof(output_buff);i++) {
 173              		.loc 1 30 23 discriminator 1 view .LVU37
 174 0014 D922     		movs	r2, #217
 175 0016 5200     		lsls	r2, r2, #1
 176 0018 9342     		cmp	r3, r2
 177 001a F7D9     		bls	.L10
 178              	.LBE6:
  32:Core/Src/ws2811.c **** 	}
ARM GAS  /tmp/ccZQz6BU.s 			page 5


  33:Core/Src/ws2811.c **** 	uint8_t* tmp = &ws2811_bkup_buffer[spi_index*BYTES_PER_LED*NUMBER_LEDS];
 179              		.loc 1 33 2 view .LVU38
 180              		.loc 1 33 60 is_stmt 0 view .LVU39
 181 001c 2B4B     		ldr	r3, .L23+4
 182              	.LVL12:
 183              		.loc 1 33 60 view .LVU40
 184 001e 1A68     		ldr	r2, [r3]
 185 0020 6C23     		movs	r3, #108
 186 0022 5343     		muls	r3, r2
 187              		.loc 1 33 11 view .LVU41
 188 0024 2A4A     		ldr	r2, .L23+8
 189 0026 9C46     		mov	ip, r3
 190 0028 9444     		add	ip, ip, r2
 191              	.LVL13:
  34:Core/Src/ws2811.c **** 	uint32_t byte_i = 0;
 192              		.loc 1 34 2 is_stmt 1 view .LVU42
  35:Core/Src/ws2811.c **** 	uint8_t bit_i = 7;
 193              		.loc 1 35 2 view .LVU43
  36:Core/Src/ws2811.c **** 	for(uint32_t i = 0;i < BYTES_PER_LED*NUMBER_LEDS;i++) {
 194              		.loc 1 36 2 view .LVU44
 195              	.LBB7:
 196              		.loc 1 36 6 view .LVU45
 197              		.loc 1 36 15 is_stmt 0 view .LVU46
 198 002a 0023     		movs	r3, #0
 199 002c 9846     		mov	r8, r3
 200              	.LBE7:
  35:Core/Src/ws2811.c **** 	uint8_t bit_i = 7;
 201              		.loc 1 35 10 view .LVU47
 202 002e 0733     		adds	r3, r3, #7
  34:Core/Src/ws2811.c **** 	uint32_t byte_i = 0;
 203              		.loc 1 34 11 view .LVU48
 204 0030 0024     		movs	r4, #0
 205              	.LBB16:
 206              		.loc 1 36 2 view .LVU49
 207 0032 2FE0     		b	.L11
 208              	.LVL14:
 209              	.L12:
 210              	.LBB8:
 211              	.LBB9:
 212              	.LBB10:
  37:Core/Src/ws2811.c **** 		uint8_t mask = 0x80;
  38:Core/Src/ws2811.c **** 		for(uint8_t j = 0; j < 8; j++) {
  39:Core/Src/ws2811.c **** 			uint8_t bit = mask & tmp[i];
  40:Core/Src/ws2811.c **** 			if (bit == 0) {
  41:Core/Src/ws2811.c **** 				spi_d[0] = 0;
  42:Core/Src/ws2811.c **** 				spi_d[1] = 0;
  43:Core/Src/ws2811.c **** 				spi_d[2] = 0;
  44:Core/Src/ws2811.c **** 				spi_d[3] = 1;
  45:Core/Src/ws2811.c **** 			} else {
  46:Core/Src/ws2811.c **** 				spi_d[0] = 0;
 213              		.loc 1 46 5 is_stmt 1 view .LVU50
 214              		.loc 1 46 14 is_stmt 0 view .LVU51
 215 0034 274A     		ldr	r2, .L23+12
 216              	.LVL15:
 217              		.loc 1 46 14 view .LVU52
 218 0036 0021     		movs	r1, #0
 219              	.LVL16:
ARM GAS  /tmp/ccZQz6BU.s 			page 6


 220              		.loc 1 46 14 view .LVU53
 221 0038 1170     		strb	r1, [r2]
 222              	.LVL17:
  47:Core/Src/ws2811.c **** 				spi_d[1] = 0;
 223              		.loc 1 47 5 is_stmt 1 view .LVU54
 224              		.loc 1 47 14 is_stmt 0 view .LVU55
 225 003a 5170     		strb	r1, [r2, #1]
  48:Core/Src/ws2811.c **** 				spi_d[2] = 1;
 226              		.loc 1 48 5 is_stmt 1 view .LVU56
 227              		.loc 1 48 14 is_stmt 0 view .LVU57
 228 003c 0131     		adds	r1, r1, #1
 229 003e 9170     		strb	r1, [r2, #2]
  49:Core/Src/ws2811.c **** 				spi_d[3] = 1;
 230              		.loc 1 49 5 is_stmt 1 view .LVU58
 231              		.loc 1 49 14 is_stmt 0 view .LVU59
 232 0040 D170     		strb	r1, [r2, #3]
 233 0042 22E0     		b	.L13
 234              	.LVL18:
 235              	.L14:
 236              	.LBB11:
  50:Core/Src/ws2811.c **** 			}
  51:Core/Src/ws2811.c **** 			for(uint32_t k = 0; k < BITS; k++) {
  52:Core/Src/ws2811.c **** 				output_buff[byte_i] = output_buff[byte_i] | (spi_d[k] << bit_i);
  53:Core/Src/ws2811.c **** 				if (bit_i == 0) {
  54:Core/Src/ws2811.c **** 					bit_i = 8;
  55:Core/Src/ws2811.c **** 					byte_i++;
  56:Core/Src/ws2811.c **** 				}
  57:Core/Src/ws2811.c **** 				bit_i--;
 237              		.loc 1 57 5 is_stmt 1 view .LVU60
 238              		.loc 1 57 10 is_stmt 0 view .LVU61
 239 0044 013B     		subs	r3, r3, #1
 240              	.LVL19:
 241              		.loc 1 57 10 view .LVU62
 242 0046 DBB2     		uxtb	r3, r3
 243              	.LVL20:
  51:Core/Src/ws2811.c **** 				output_buff[byte_i] = output_buff[byte_i] | (spi_d[k] << bit_i);
 244              		.loc 1 51 35 is_stmt 1 discriminator 2 view .LVU63
 245 0048 0130     		adds	r0, r0, #1
 246              	.LVL21:
 247              	.L15:
  51:Core/Src/ws2811.c **** 				output_buff[byte_i] = output_buff[byte_i] | (spi_d[k] << bit_i);
 248              		.loc 1 51 26 discriminator 1 view .LVU64
 249 004a 0328     		cmp	r0, #3
 250 004c 0CD8     		bhi	.L20
  52:Core/Src/ws2811.c **** 				if (bit_i == 0) {
 251              		.loc 1 52 5 view .LVU65
  52:Core/Src/ws2811.c **** 				if (bit_i == 0) {
 252              		.loc 1 52 38 is_stmt 0 view .LVU66
 253 004e 1E4F     		ldr	r7, .L23
 254 0050 3A5D     		ldrb	r2, [r7, r4]
  52:Core/Src/ws2811.c **** 				if (bit_i == 0) {
 255              		.loc 1 52 55 view .LVU67
 256 0052 2049     		ldr	r1, .L23+12
 257 0054 095C     		ldrb	r1, [r1, r0]
  52:Core/Src/ws2811.c **** 				if (bit_i == 0) {
 258              		.loc 1 52 59 view .LVU68
 259 0056 9940     		lsls	r1, r1, r3
ARM GAS  /tmp/ccZQz6BU.s 			page 7


  52:Core/Src/ws2811.c **** 				if (bit_i == 0) {
 260              		.loc 1 52 47 view .LVU69
 261 0058 0A43     		orrs	r2, r1
 262 005a D2B2     		uxtb	r2, r2
  52:Core/Src/ws2811.c **** 				if (bit_i == 0) {
 263              		.loc 1 52 25 view .LVU70
 264 005c 3A55     		strb	r2, [r7, r4]
  53:Core/Src/ws2811.c **** 					bit_i = 8;
 265              		.loc 1 53 5 is_stmt 1 view .LVU71
  53:Core/Src/ws2811.c **** 					bit_i = 8;
 266              		.loc 1 53 8 is_stmt 0 view .LVU72
 267 005e 002B     		cmp	r3, #0
 268 0060 F0D1     		bne	.L14
  54:Core/Src/ws2811.c **** 					byte_i++;
 269              		.loc 1 54 6 is_stmt 1 view .LVU73
 270              	.LVL22:
  55:Core/Src/ws2811.c **** 				}
 271              		.loc 1 55 6 view .LVU74
  55:Core/Src/ws2811.c **** 				}
 272              		.loc 1 55 12 is_stmt 0 view .LVU75
 273 0062 0134     		adds	r4, r4, #1
 274              	.LVL23:
  54:Core/Src/ws2811.c **** 					byte_i++;
 275              		.loc 1 54 12 view .LVU76
 276 0064 0833     		adds	r3, r3, #8
 277 0066 EDE7     		b	.L14
 278              	.LVL24:
 279              	.L20:
  54:Core/Src/ws2811.c **** 					byte_i++;
 280              		.loc 1 54 12 view .LVU77
 281              	.LBE11:
  58:Core/Src/ws2811.c **** 			}
  59:Core/Src/ws2811.c **** 			mask = mask >> 1;
 282              		.loc 1 59 4 is_stmt 1 view .LVU78
 283              		.loc 1 59 9 is_stmt 0 view .LVU79
 284 0068 7608     		lsrs	r6, r6, #1
 285              	.LVL25:
 286              		.loc 1 59 9 view .LVU80
 287              	.LBE10:
  38:Core/Src/ws2811.c **** 			uint8_t bit = mask & tmp[i];
 288              		.loc 1 38 30 is_stmt 1 discriminator 2 view .LVU81
 289 006a 0135     		adds	r5, r5, #1
 290              	.LVL26:
  38:Core/Src/ws2811.c **** 			uint8_t bit = mask & tmp[i];
 291              		.loc 1 38 30 is_stmt 0 discriminator 2 view .LVU82
 292 006c EDB2     		uxtb	r5, r5
 293              	.LVL27:
 294              	.L18:
  38:Core/Src/ws2811.c **** 			uint8_t bit = mask & tmp[i];
 295              		.loc 1 38 24 is_stmt 1 discriminator 1 view .LVU83
 296 006e 072D     		cmp	r5, #7
 297 0070 0DD8     		bhi	.L21
 298              	.LBB13:
  39:Core/Src/ws2811.c **** 			if (bit == 0) {
 299              		.loc 1 39 4 view .LVU84
  39:Core/Src/ws2811.c **** 			if (bit == 0) {
 300              		.loc 1 39 28 is_stmt 0 view .LVU85
ARM GAS  /tmp/ccZQz6BU.s 			page 8


 301 0072 6246     		mov	r2, ip
 302 0074 4146     		mov	r1, r8
 303 0076 525C     		ldrb	r2, [r2, r1]
 304              	.LVL28:
  40:Core/Src/ws2811.c **** 				spi_d[0] = 0;
 305              		.loc 1 40 4 is_stmt 1 view .LVU86
  40:Core/Src/ws2811.c **** 				spi_d[0] = 0;
 306              		.loc 1 40 7 is_stmt 0 view .LVU87
 307 0078 1642     		tst	r6, r2
 308 007a DBD1     		bne	.L12
 309              	.LVL29:
  41:Core/Src/ws2811.c **** 				spi_d[1] = 0;
 310              		.loc 1 41 5 is_stmt 1 view .LVU88
  41:Core/Src/ws2811.c **** 				spi_d[1] = 0;
 311              		.loc 1 41 14 is_stmt 0 view .LVU89
 312 007c 154A     		ldr	r2, .L23+12
 313              	.LVL30:
  41:Core/Src/ws2811.c **** 				spi_d[1] = 0;
 314              		.loc 1 41 14 view .LVU90
 315 007e 0021     		movs	r1, #0
 316              	.LVL31:
  41:Core/Src/ws2811.c **** 				spi_d[1] = 0;
 317              		.loc 1 41 14 view .LVU91
 318 0080 1170     		strb	r1, [r2]
 319              	.LVL32:
  42:Core/Src/ws2811.c **** 				spi_d[2] = 0;
 320              		.loc 1 42 5 is_stmt 1 view .LVU92
  42:Core/Src/ws2811.c **** 				spi_d[2] = 0;
 321              		.loc 1 42 14 is_stmt 0 view .LVU93
 322 0082 5170     		strb	r1, [r2, #1]
  43:Core/Src/ws2811.c **** 				spi_d[3] = 1;
 323              		.loc 1 43 5 is_stmt 1 view .LVU94
  43:Core/Src/ws2811.c **** 				spi_d[3] = 1;
 324              		.loc 1 43 14 is_stmt 0 view .LVU95
 325 0084 9170     		strb	r1, [r2, #2]
  44:Core/Src/ws2811.c **** 			} else {
 326              		.loc 1 44 5 is_stmt 1 view .LVU96
  44:Core/Src/ws2811.c **** 			} else {
 327              		.loc 1 44 14 is_stmt 0 view .LVU97
 328 0086 0131     		adds	r1, r1, #1
 329 0088 D170     		strb	r1, [r2, #3]
 330              	.L13:
 331              	.LBB12:
  54:Core/Src/ws2811.c **** 					byte_i++;
 332              		.loc 1 54 12 view .LVU98
 333 008a 0020     		movs	r0, #0
 334 008c DDE7     		b	.L15
 335              	.LVL33:
 336              	.L21:
  54:Core/Src/ws2811.c **** 					byte_i++;
 337              		.loc 1 54 12 view .LVU99
 338              	.LBE12:
 339              	.LBE13:
 340              	.LBE9:
 341              	.LBE8:
  36:Core/Src/ws2811.c **** 		uint8_t mask = 0x80;
 342              		.loc 1 36 52 is_stmt 1 discriminator 2 view .LVU100
ARM GAS  /tmp/ccZQz6BU.s 			page 9


 343 008e 0122     		movs	r2, #1
 344 0090 9146     		mov	r9, r2
 345 0092 C844     		add	r8, r8, r9
 346              	.LVL34:
 347              	.L11:
  36:Core/Src/ws2811.c **** 		uint8_t mask = 0x80;
 348              		.loc 1 36 23 discriminator 1 view .LVU101
 349 0094 4246     		mov	r2, r8
 350 0096 6B2A     		cmp	r2, #107
 351 0098 02D8     		bhi	.L22
 352              	.LBB15:
 353              	.LBB14:
  38:Core/Src/ws2811.c **** 			uint8_t bit = mask & tmp[i];
 354              		.loc 1 38 15 is_stmt 0 view .LVU102
 355 009a 0025     		movs	r5, #0
 356              	.LBE14:
  37:Core/Src/ws2811.c **** 		for(uint8_t j = 0; j < 8; j++) {
 357              		.loc 1 37 11 view .LVU103
 358 009c 8026     		movs	r6, #128
 359 009e E6E7     		b	.L18
 360              	.L22:
 361              	.LBE15:
 362              	.LBE16:
  60:Core/Src/ws2811.c **** 		}
  61:Core/Src/ws2811.c **** 	}
  62:Core/Src/ws2811.c **** 	uint32_t last_i = sizeof(output_buff)-1;
 363              		.loc 1 62 2 is_stmt 1 view .LVU104
 364              	.LVL35:
  63:Core/Src/ws2811.c **** 	output_buff[last_i-2] = 0x00;
 365              		.loc 1 63 2 view .LVU105
 366              		.loc 1 63 24 is_stmt 0 view .LVU106
 367 00a0 0949     		ldr	r1, .L23
 368 00a2 0023     		movs	r3, #0
 369              	.LVL36:
 370              		.loc 1 63 24 view .LVU107
 371 00a4 D822     		movs	r2, #216
 372 00a6 5200     		lsls	r2, r2, #1
 373 00a8 8B54     		strb	r3, [r1, r2]
  64:Core/Src/ws2811.c **** 	output_buff[last_i-1] = 0x00;
 374              		.loc 1 64 2 is_stmt 1 view .LVU108
 375              		.loc 1 64 24 is_stmt 0 view .LVU109
 376 00aa B222     		movs	r2, #178
 377 00ac FF32     		adds	r2, r2, #255
 378 00ae 8B54     		strb	r3, [r1, r2]
  65:Core/Src/ws2811.c **** 	output_buff[last_i] = 0x00;
 379              		.loc 1 65 2 is_stmt 1 view .LVU110
 380              		.loc 1 65 22 is_stmt 0 view .LVU111
 381 00b0 0132     		adds	r2, r2, #1
 382 00b2 8B54     		strb	r3, [r1, r2]
  66:Core/Src/ws2811.c **** 	HAL_SPI_Transmit_IT(&hspi1, output_buff, BYTES_PER_LED*NUMBER_LEDS*BITS+3);
 383              		.loc 1 66 2 is_stmt 1 view .LVU112
 384 00b4 FE3A     		subs	r2, r2, #254
 385 00b6 0848     		ldr	r0, .L23+16
 386 00b8 FF32     		adds	r2, r2, #255
 387 00ba FFF7FEFF 		bl	HAL_SPI_Transmit_IT
 388              	.LVL37:
  67:Core/Src/ws2811.c **** 	return WS2811_RET_OK;	
ARM GAS  /tmp/ccZQz6BU.s 			page 10


 389              		.loc 1 67 2 view .LVU113
  68:Core/Src/ws2811.c **** }
 390              		.loc 1 68 1 is_stmt 0 view .LVU114
 391 00be 0020     		movs	r0, #0
 392              		@ sp needed
 393              	.LVL38:
 394              	.LVL39:
 395              		.loc 1 68 1 view .LVU115
 396 00c0 C0BC     		pop	{r6, r7}
 397 00c2 B946     		mov	r9, r7
 398 00c4 B046     		mov	r8, r6
 399 00c6 F8BD     		pop	{r3, r4, r5, r6, r7, pc}
 400              	.L24:
 401              		.align	2
 402              	.L23:
 403 00c8 00000000 		.word	output_buff
 404 00cc 00000000 		.word	spi_index
 405 00d0 00000000 		.word	ws2811_bkup_buffer
 406 00d4 00000000 		.word	spi_d
 407 00d8 00000000 		.word	hspi1
 408              		.cfi_endproc
 409              	.LFE41:
 411              		.section	.bss.output_buff,"aw",%nobits
 412              		.align	2
 415              	output_buff:
 416 0000 00000000 		.space	435
 416      00000000 
 416      00000000 
 416      00000000 
 416      00000000 
 417              		.section	.bss.spi_d,"aw",%nobits
 418              		.align	2
 421              	spi_d:
 422 0000 00000000 		.space	4
 423              		.section	.bss.spi_index,"aw",%nobits
 424              		.align	2
 427              	spi_index:
 428 0000 00000000 		.space	4
 429              		.section	.bss.ws2811_bkup_buffer,"aw",%nobits
 430              		.align	2
 433              	ws2811_bkup_buffer:
 434 0000 00000000 		.space	108
 434      00000000 
 434      00000000 
 434      00000000 
 434      00000000 
 435              		.text
 436              	.Letext0:
 437              		.file 2 "/usr/arm-none-eabi/include/machine/_default_types.h"
 438              		.file 3 "/usr/arm-none-eabi/include/sys/_stdint.h"
 439              		.file 4 "Core/Inc/ws2811.h"
 440              		.file 5 "Drivers/CMSIS/Device/ST/STM32F0xx/Include/stm32f042x6.h"
 441              		.file 6 "Drivers/STM32F0xx_HAL_Driver/Inc/stm32f0xx_hal_def.h"
 442              		.file 7 "Drivers/STM32F0xx_HAL_Driver/Inc/stm32f0xx_hal_dma.h"
 443              		.file 8 "Drivers/STM32F0xx_HAL_Driver/Inc/stm32f0xx_hal_spi.h"
ARM GAS  /tmp/ccZQz6BU.s 			page 11

